; Function Attrs: mustprogress nofree nounwind willreturn memory(read) uwtable
define hidden noundef i64 @_ZNK4cvc58internal7Integer6lengthEv(ptr noundef nonnull readonly align 8 dereferenceable(16) %0) local_unnamed_addr #1 align 2 {
  %2 = getelementptr inbounds nuw i8, ptr %0, i64 4
  %3 = load i32, ptr %2, align 4, !tbaa !11
  %.not = icmp eq i32 %3, 0
  br i1 %.not, label %6, label %4

4:                                                ; preds = %1
  %5 = tail call i64 @__gmpz_sizeinbase(ptr noundef nonnull %0, i32 noundef 2) #18
  br label %6

6:                                                ; preds = %1, %4
  %.0 = phi i64 [ %5, %4 ], [ 1, %1 ]
  ret i64 %.0
}